; Function Attrs: mustprogress nounwind uwtable
define hidden void @_ZN13EscapeBarrier10resume_oneEv(ptr nocapture noundef nonnull readonly align 8 dereferenceable(17) %0) local_unnamed_addr #1 align 2 {
  %2 = load ptr, ptr @EscapeBarrier_lock, align 8
  %.not.i.i = icmp eq ptr %2, null
  br i1 %.not.i.i, label %_ZN13MonitorLockerC2EP6ThreadP7MonitorN5Mutex18SafepointCheckFlagE.exit, label %3

3:                                                ; preds = %1
  %4 = load ptr, ptr %0, align 8
  tail call void @_ZN5Mutex28lock_without_safepoint_checkEP6Thread(ptr noundef nonnull align 8 dereferenceable(104) %2, ptr noundef %4) #9
  br label %_ZN13MonitorLockerC2EP6ThreadP7MonitorN5Mutex18SafepointCheckFlagE.exit

_ZN13MonitorLockerC2EP6ThreadP7MonitorN5Mutex18SafepointCheckFlagE.exit: ; preds = %1, %3
  %5 = load ptr, ptr %0, align 8
  %6 = getelementptr inbounds i8, ptr %0, i64 8
  %7 = load ptr, ptr %6, align 8
  %8 = icmp eq ptr %5, %7
  br i1 %8, label %9, label %10

9:                                                ; preds = %_ZN13MonitorLockerC2EP6ThreadP7MonitorN5Mutex18SafepointCheckFlagE.exit
  store i8 0, ptr @_ZN13EscapeBarrier32_self_deoptimization_in_progressE, align 1
  br label %_ZN13MonitorLockerD2Ev.exit

10:                                               ; preds = %_ZN13MonitorLockerC2EP6ThreadP7MonitorN5Mutex18SafepointCheckFlagE.exit
  %11 = getelementptr inbounds i8, ptr %7, i64 1088
  br label %12

12:                                               ; preds = %12, %10
  %13 = load volatile i32, ptr %11, align 8
  %14 = and i32 %13, -9
  %15 = tail call noundef i32 asm sideeffect "lock cmpxchgl $1,($3)", "={ax},r,{ax},r,~{cc},~{memory},~{dirflag},~{fpsr},~{flags}"(i32 %14, i32 %13, ptr nonnull %11) #9, !srcloc !29
  %.not.i.i1 = icmp eq i32 %15, %13
  br i1 %.not.i.i1, label %_ZN13MonitorLockerD2Ev.exit, label %12, !llvm.loop !35

_ZN13MonitorLockerD2Ev.exit:                      ; preds = %12, %9
  tail call void @_ZN7Monitor10notify_allEv(ptr noundef nonnull align 8 dereferenceable(104) %2) #9
  tail call void @_ZN5Mutex6unlockEv(ptr noundef nonnull align 8 dereferenceable(104) %2) #9
  ret void
}